target datalayout = "e-m:e-p270:32:32-p271:32:32-p272:64:64-i64:64-i128:128-f80:128-n8:16:32:64-S128"
target triple = "x86_64-pc-linux-gnu"

%struct.CF2_StackNumber_ = type { %union.anon.0, i32 }
%union.anon.0 = type { i32 }
%struct.CF2_StackRec_ = type { ptr, ptr, ptr, ptr, i32 }

; Function Attrs: nounwind uwtable
define internal void @cf2_setError(ptr noundef %0, i32 noundef %1) #0 {
  %3 = alloca ptr, align 8
  %4 = alloca i32, align 4
  store ptr %0, ptr %3, align 8
  store i32 %1, ptr %4, align 4
  %5 = load ptr, ptr %3, align 8
  %6 = icmp ne ptr %5, null
  br i1 %6, label %7, label %14

7:                                                ; preds = %2
  %8 = load ptr, ptr %3, align 8
  %9 = load i32, ptr %8, align 4
  %10 = icmp ne i32 %9, 0
  br i1 %10, label %14, label %11

11:                                               ; preds = %7
  %12 = load i32, ptr %4, align 4
  %13 = load ptr, ptr %3, align 8
  store i32 %12, ptr %13, align 4
  br label %14

14:                                               ; preds = %11, %7, %2
  ret void
}

; Function Attrs: nounwind uwtable
define internal i32 @cf2_stack_popFixed(ptr noundef %0) #0 {
  %2 = alloca i32, align 4
  %3 = alloca ptr, align 8
  store ptr %0, ptr %3, align 8
  %4 = load ptr, ptr %3, align 8
  %5 = getelementptr inbounds %struct.CF2_StackRec_, ptr %4, i32 0, i32 3
  %6 = load ptr, ptr %5, align 8
  %7 = load ptr, ptr %3, align 8
  %8 = getelementptr inbounds %struct.CF2_StackRec_, ptr %7, i32 0, i32 2
  %9 = load ptr, ptr %8, align 8
  %10 = icmp eq ptr %6, %9
  br i1 %10, label %11, label %15

11:                                               ; preds = %1
  %12 = load ptr, ptr %3, align 8
  %13 = getelementptr inbounds %struct.CF2_StackRec_, ptr %12, i32 0, i32 1
  %14 = load ptr, ptr %13, align 8
  call void @cf2_setError(ptr noundef %14, i32 noundef 161)
  store i32 0, ptr %2, align 4
  br label %54

15:                                               ; preds = %1
  %16 = load ptr, ptr %3, align 8
  %17 = getelementptr inbounds %struct.CF2_StackRec_, ptr %16, i32 0, i32 3
  %18 = load ptr, ptr %17, align 8
  %19 = getelementptr inbounds %struct.CF2_StackNumber_, ptr %18, i32 -1
  store ptr %19, ptr %17, align 8
  %20 = load ptr, ptr %3, align 8
  %21 = getelementptr inbounds %struct.CF2_StackRec_, ptr %20, i32 0, i32 3
  %22 = load ptr, ptr %21, align 8
  %23 = getelementptr inbounds %struct.CF2_StackNumber_, ptr %22, i32 0, i32 1
  %24 = load i32, ptr %23, align 4
  switch i32 %24, label %48 [
    i32 2, label %25
    i32 1, label %32
  ]

25:                                               ; preds = %15
  %26 = load ptr, ptr %3, align 8
  %27 = getelementptr inbounds %struct.CF2_StackRec_, ptr %26, i32 0, i32 3
  %28 = load ptr, ptr %27, align 8
  %29 = getelementptr inbounds %struct.CF2_StackNumber_, ptr %28, i32 0, i32 0
  %30 = load i32, ptr %29, align 4
  %31 = shl i32 %30, 16
  store i32 %31, ptr %2, align 4
  br label %54

32:                                               ; preds = %15
  %33 = load ptr, ptr %3, align 8
  %34 = getelementptr inbounds %struct.CF2_StackRec_, ptr %33, i32 0, i32 3
  %35 = load ptr, ptr %34, align 8
  %36 = getelementptr inbounds %struct.CF2_StackNumber_, ptr %35, i32 0, i32 0
  %37 = load i32, ptr %36, align 4
  %38 = add nsw i32 %37, 8192
  %39 = load ptr, ptr %3, align 8
  %40 = getelementptr inbounds %struct.CF2_StackRec_, ptr %39, i32 0, i32 3
  %41 = load ptr, ptr %40, align 8
  %42 = getelementptr inbounds %struct.CF2_StackNumber_, ptr %41, i32 0, i32 0
  %43 = load i32, ptr %42, align 4
  %44 = icmp slt i32 %43, 0
  %45 = zext i1 %44 to i32
  %46 = sub nsw i32 %38, %45
  %47 = ashr i32 %46, 14
  store i32 %47, ptr %2, align 4
  br label %54

48:                                               ; preds = %15
  %49 = load ptr, ptr %3, align 8
  %50 = getelementptr inbounds %struct.CF2_StackRec_, ptr %49, i32 0, i32 3
  %51 = load ptr, ptr %50, align 8
  %52 = getelementptr inbounds %struct.CF2_StackNumber_, ptr %51, i32 0, i32 0
  %53 = load i32, ptr %52, align 4
  store i32 %53, ptr %2, align 4
  br label %54

54:                                               ; preds = %48, %32, %25, %11
  %55 = load i32, ptr %2, align 4
  ret i32 %55
}