; Function Attrs: mustprogress nofree norecurse nosync nounwind willreturn memory(readwrite, inaccessiblemem: none) uwtable
define internal fastcc i32 @cf2_stack_popFixed(ptr noundef nonnull captures(none) %0) unnamed_addr #5 {
  %2 = getelementptr inbounds nuw i8, ptr %0, i64 24
  %3 = load ptr, ptr %2, align 8
  %4 = getelementptr inbounds nuw i8, ptr %0, i64 16
  %5 = load ptr, ptr %4, align 8
  %6 = icmp eq ptr %3, %5
  br i1 %6, label %7, label %13

7:                                                ; preds = %1
  %8 = getelementptr inbounds nuw i8, ptr %0, i64 8
  %9 = load ptr, ptr %8, align 8
  %.not.i = icmp eq ptr %9, null
  br i1 %.not.i, label %cf2_setError.exit, label %10

10:                                               ; preds = %7
  %11 = load i32, ptr %9, align 4
  %.not3.i = icmp eq i32 %11, 0
  br i1 %.not3.i, label %12, label %cf2_setError.exit

12:                                               ; preds = %10
  store i32 161, ptr %9, align 4
  br label %cf2_setError.exit

13:                                               ; preds = %1
  %14 = getelementptr inbounds i8, ptr %3, i64 -8
  store ptr %14, ptr %2, align 8
  %15 = getelementptr inbounds i8, ptr %3, i64 -4
  %16 = load i32, ptr %15, align 4
  %17 = load i32, ptr %14, align 4
  switch i32 %16, label %cf2_setError.exit [
    i32 2, label %18
    i32 1, label %20
  ]

18:                                               ; preds = %13
  %19 = shl i32 %17, 16
  br label %cf2_setError.exit

20:                                               ; preds = %13
  %21 = add nsw i32 %17, 8192
  %.lobit.neg = ashr i32 %17, 31
  %22 = add nsw i32 %21, %.lobit.neg
  %23 = ashr i32 %22, 14
  br label %cf2_setError.exit

cf2_setError.exit:                                ; preds = %13, %12, %10, %7, %20, %18
  %.0 = phi i32 [ %23, %20 ], [ %19, %18 ], [ 0, %7 ], [ 0, %10 ], [ 0, %12 ], [ %17, %13 ]
  ret i32 %.0
}